target datalayout = "e-m:e-p270:32:32-p271:32:32-p272:64:64-i64:64-i128:128-f80:128-n8:16:32:64-S128"
target triple = "x86_64-pc-linux-gnu"

; Function Attrs: nounwind sspstrong uwtable
define internal i32 @case_map(ptr noundef %0, ptr noundef %1, ptr noundef %2, ptr noundef %3, ptr noundef %4, ptr noundef %5) #0 {
  %7 = alloca ptr, align 8
  %8 = alloca ptr, align 8
  %9 = alloca ptr, align 8
  %10 = alloca ptr, align 8
  %11 = alloca ptr, align 8
  %12 = alloca ptr, align 8
  %13 = alloca i32, align 4
  %14 = alloca ptr, align 8
  %15 = alloca i32, align 4
  store ptr %0, ptr %7, align 8, !tbaa !23
  store ptr %1, ptr %8, align 8, !tbaa !14
  store ptr %2, ptr %9, align 8, !tbaa !16
  store ptr %3, ptr %10, align 8, !tbaa !16
  store ptr %4, ptr %11, align 8, !tbaa !16
  store ptr %5, ptr %12, align 8, !tbaa !17
  call void @llvm.lifetime.start.p0(i64 4, ptr %13) #3
  call void @llvm.lifetime.start.p0(i64 8, ptr %14) #3
  %16 = load ptr, ptr %10, align 8, !tbaa !16
  store ptr %16, ptr %14, align 8, !tbaa !16
  call void @llvm.lifetime.start.p0(i64 4, ptr %15) #3
  %17 = load ptr, ptr %7, align 8, !tbaa !23
  %18 = load i32, ptr %17, align 4, !tbaa !13
  store i32 %18, ptr %15, align 4, !tbaa !13
  br label %19

19:                                               ; preds = %150, %6
  %20 = load ptr, ptr %8, align 8, !tbaa !14
  %21 = load ptr, ptr %20, align 8, !tbaa !16
  %22 = load ptr, ptr %9, align 8, !tbaa !16
  %23 = icmp ult ptr %21, %22
  br i1 %23, label %24, label %28

24:                                               ; preds = %19
  %25 = load ptr, ptr %10, align 8, !tbaa !16
  %26 = load ptr, ptr %11, align 8, !tbaa !16
  %27 = icmp ult ptr %25, %26
  br label %28

28:                                               ; preds = %24, %19
  %29 = phi i1 [ false, %19 ], [ %27, %24 ]
  br i1 %29, label %30, label %151

30:                                               ; preds = %28
  %31 = load ptr, ptr %8, align 8, !tbaa !14
  %32 = load ptr, ptr %31, align 8, !tbaa !16
  %33 = getelementptr inbounds nuw i8, ptr %32, i32 1
  store ptr %33, ptr %31, align 8, !tbaa !16
  %34 = load i8, ptr %32, align 1, !tbaa !19
  %35 = zext i8 %34 to i32
  store i32 %35, ptr %13, align 4, !tbaa !13
  %36 = load i32, ptr %13, align 4, !tbaa !13
  %37 = icmp eq i32 %36, 223
  br i1 %37, label %38, label %62

38:                                               ; preds = %30
  %39 = load i32, ptr %15, align 4, !tbaa !13
  %40 = and i32 %39, 8192
  %41 = icmp ne i32 %40, 0
  br i1 %41, label %42, label %51

42:                                               ; preds = %38
  %43 = load i32, ptr %15, align 4, !tbaa !13
  %44 = or i32 %43, 262144
  store i32 %44, ptr %15, align 4, !tbaa !13
  %45 = load ptr, ptr %10, align 8, !tbaa !16
  %46 = getelementptr inbounds nuw i8, ptr %45, i32 1
  store ptr %46, ptr %10, align 8, !tbaa !16
  store i8 83, ptr %45, align 1, !tbaa !19
  %47 = load i32, ptr %15, align 4, !tbaa !13
  %48 = and i32 %47, 32768
  %49 = icmp ne i32 %48, 0
  %50 = select i1 %49, i32 115, i32 83
  store i32 %50, ptr %13, align 4, !tbaa !13
  br label %61

51:                                               ; preds = %38
  %52 = load i32, ptr %15, align 4, !tbaa !13
  %53 = and i32 %52, 524288
  %54 = icmp ne i32 %53, 0
  br i1 %54, label %55, label %60

55:                                               ; preds = %51
  %56 = load i32, ptr %15, align 4, !tbaa !13
  %57 = or i32 %56, 262144
  store i32 %57, ptr %15, align 4, !tbaa !13
  %58 = load ptr, ptr %10, align 8, !tbaa !16
  %59 = getelementptr inbounds nuw i8, ptr %58, i32 1
  store ptr %59, ptr %10, align 8, !tbaa !16
  store i8 115, ptr %58, align 1, !tbaa !19
  store i32 115, ptr %13, align 4, !tbaa !13
  br label %60

60:                                               ; preds = %55, %51
  br label %61

61:                                               ; preds = %60, %42
  br label %139

62:                                               ; preds = %30
  %63 = load i32, ptr %13, align 4, !tbaa !13
  %64 = icmp eq i32 %63, 181
  br i1 %64, label %65, label %66

65:                                               ; preds = %62
  br label %138

66:                                               ; preds = %62
  %67 = load i32, ptr %13, align 4, !tbaa !13
  %68 = zext i32 %67 to i64
  %69 = getelementptr inbounds nuw [256 x i16], ptr @EncISO_8859_3_CtypeTable, i64 0, i64 %68
  %70 = load i16, ptr %69, align 2, !tbaa !21
  %71 = zext i16 %70 to i32
  %72 = and i32 %71, 1024
  %73 = icmp ne i32 %72, 0
  br i1 %73, label %74, label %95

74:                                               ; preds = %66
  %75 = load i32, ptr %15, align 4, !tbaa !13
  %76 = and i32 %75, 540672
  %77 = icmp ne i32 %76, 0
  br i1 %77, label %78, label %95

78:                                               ; preds = %74
  %79 = load i32, ptr %15, align 4, !tbaa !13
  %80 = or i32 %79, 262144
  store i32 %80, ptr %15, align 4, !tbaa !13
  %81 = load i32, ptr %13, align 4, !tbaa !13
  %82 = icmp eq i32 %81, 73
  br i1 %82, label %83, label %88

83:                                               ; preds = %78
  %84 = load i32, ptr %15, align 4, !tbaa !13
  %85 = and i32 %84, 1048576
  %86 = icmp ne i32 %85, 0
  %87 = select i1 %86, i32 185, i32 105
  store i32 %87, ptr %13, align 4, !tbaa !13
  br label %94

88:                                               ; preds = %78
  %89 = load i32, ptr %13, align 4, !tbaa !13
  %90 = zext i32 %89 to i64
  %91 = getelementptr inbounds nuw [256 x i8], ptr @EncISO_8859_3_ToLowerCaseTable, i64 0, i64 %90
  %92 = load i8, ptr %91, align 1, !tbaa !19
  %93 = zext i8 %92 to i32
  store i32 %93, ptr %13, align 4, !tbaa !13
  br label %94

94:                                               ; preds = %88, %83
  br label %137

95:                                               ; preds = %74, %66
  %96 = load i32, ptr %13, align 4, !tbaa !13
  %97 = zext i32 %96 to i64
  %98 = getelementptr inbounds nuw [256 x i16], ptr @EncISO_8859_3_CtypeTable, i64 0, i64 %97
  %99 = load i16, ptr %98, align 2, !tbaa !21
  %100 = zext i16 %99 to i32
  %101 = and i32 %100, 64
  %102 = icmp ne i32 %101, 0
  br i1 %102, label %103, label %136

103:                                              ; preds = %95
  %104 = load i32, ptr %15, align 4, !tbaa !13
  %105 = and i32 %104, 8192
  %106 = icmp ne i32 %105, 0
  br i1 %106, label %107, label %136

107:                                              ; preds = %103
  %108 = load i32, ptr %15, align 4, !tbaa !13
  %109 = or i32 %108, 262144
  store i32 %109, ptr %15, align 4, !tbaa !13
  %110 = load i32, ptr %13, align 4, !tbaa !13
  %111 = icmp eq i32 %110, 105
  br i1 %111, label %112, label %117

112:                                              ; preds = %107
  %113 = load i32, ptr %15, align 4, !tbaa !13
  %114 = and i32 %113, 1048576
  %115 = icmp ne i32 %114, 0
  %116 = select i1 %115, i32 169, i32 73
  store i32 %116, ptr %13, align 4, !tbaa !13
  br label %135

117:                                              ; preds = %107
  %118 = load i32, ptr %13, align 4, !tbaa !13
  %119 = icmp eq i32 %118, 185
  br i1 %119, label %120, label %121

120:                                              ; preds = %117
  store i32 73, ptr %13, align 4, !tbaa !13
  br label %134

121:                                              ; preds = %117
  %122 = load i32, ptr %13, align 4, !tbaa !13
  %123 = icmp uge i32 %122, 176
  br i1 %123, label %124, label %130

124:                                              ; preds = %121
  %125 = load i32, ptr %13, align 4, !tbaa !13
  %126 = icmp ule i32 %125, 191
  br i1 %126, label %127, label %130

127:                                              ; preds = %124
  %128 = load i32, ptr %13, align 4, !tbaa !13
  %129 = sub i32 %128, 16
  store i32 %129, ptr %13, align 4, !tbaa !13
  br label %133

130:                                              ; preds = %124, %121
  %131 = load i32, ptr %13, align 4, !tbaa !13
  %132 = sub i32 %131, 32
  store i32 %132, ptr %13, align 4, !tbaa !13
  br label %133

133:                                              ; preds = %130, %127
  br label %134

134:                                              ; preds = %133, %120
  br label %135

135:                                              ; preds = %134, %112
  br label %136

136:                                              ; preds = %135, %103, %95
  br label %137

137:                                              ; preds = %136, %94
  br label %138

138:                                              ; preds = %137, %65
  br label %139

139:                                              ; preds = %138, %61
  %140 = load i32, ptr %13, align 4, !tbaa !13
  %141 = trunc i32 %140 to i8
  %142 = load ptr, ptr %10, align 8, !tbaa !16
  %143 = getelementptr inbounds nuw i8, ptr %142, i32 1
  store ptr %143, ptr %10, align 8, !tbaa !16
  store i8 %141, ptr %142, align 1, !tbaa !19
  %144 = load i32, ptr %15, align 4, !tbaa !13
  %145 = and i32 %144, 32768
  %146 = icmp ne i32 %145, 0
  br i1 %146, label %147, label %150

147:                                              ; preds = %139
  %148 = load i32, ptr %15, align 4, !tbaa !13
  %149 = xor i32 %148, 57344
  store i32 %149, ptr %15, align 4, !tbaa !13
  br label %150

150:                                              ; preds = %147, %139
  br label %19, !llvm.loop !25

151:                                              ; preds = %28
  %152 = load i32, ptr %15, align 4, !tbaa !13
  %153 = load ptr, ptr %7, align 8, !tbaa !23
  store i32 %152, ptr %153, align 4, !tbaa !13
  %154 = load ptr, ptr %10, align 8, !tbaa !16
  %155 = load ptr, ptr %14, align 8, !tbaa !16
  %156 = ptrtoint ptr %154 to i64
  %157 = ptrtoint ptr %155 to i64
  %158 = sub i64 %156, %157
  %159 = trunc i64 %158 to i32
  call void @llvm.lifetime.end.p0(i64 4, ptr %15) #3
  call void @llvm.lifetime.end.p0(i64 8, ptr %14) #3
  call void @llvm.lifetime.end.p0(i64 4, ptr %13) #3
  ret i32 %159
}